target datalayout = "e-m:e-p270:32:32-p271:32:32-p272:64:64-i64:64-i128:128-f80:128-n8:16:32:64-S128"
target triple = "x86_64-pc-linux-gnu"

%struct._lv_global_t = type { i8, i8, %struct.lv_ll_t, ptr, ptr, %struct.lv_ll_t, i8, i32, i32, ptr, %struct.lv_ll_t, ptr, %struct.lv_ll_t, ptr, ptr, i32, ptr, i8, i32, i32, ptr, i32, %struct.lv_timer_state_t, %struct.lv_anim_state_t, %struct.lv_tick_state_t, %struct._lv_draw_buf_handlers_t, %struct._lv_draw_buf_handlers_t, %struct._lv_draw_buf_handlers_t, %struct.lv_ll_t, ptr, ptr, %struct.lv_draw_global_info_t, [4 x %struct.lv_draw_sw_mask_radius_circle_dsc_t], ptr, ptr, ptr, %struct.lv_tlsf_state_t, %struct.lv_ll_t, ptr, ptr, %struct.lv_style_t, i64, ptr, i32, ptr }
%struct.lv_timer_state_t = type { %struct.lv_ll_t, i8, i8, i8, i8, i32, i8, i32, i32, i32, i32, ptr, ptr }
%struct.lv_anim_state_t = type { i8, i8, ptr, %struct.lv_ll_t }
%struct.lv_tick_state_t = type { i32, i8, ptr, ptr }
%struct._lv_draw_buf_handlers_t = type { ptr, ptr, ptr, ptr, ptr, ptr }
%struct.lv_draw_global_info_t = type { ptr, i32, i32, i32, i32, i8 }
%struct.lv_draw_sw_mask_radius_circle_dsc_t = type { ptr, ptr, ptr, ptr, i32, i32, i32 }
%struct.lv_tlsf_state_t = type { ptr, i64, i64, %struct.lv_ll_t }
%struct.lv_ll_t = type { i32, ptr, ptr }
%struct.lv_style_t = type { ptr, i32, i8 }
%struct._lv_indev_t = type { i32, ptr, i32, i32, i32, i8, i32, i32, ptr, ptr, ptr, ptr, i8, i8, i8, i8, i16, i16, i32, %struct.anon, %struct.anon.0, ptr, ptr, ptr, %struct.lv_event_list_t, ptr, i32, ptr }
%struct.anon = type { %struct.lv_point_t, %struct.lv_point_t, %struct.lv_point_t, %struct.lv_point_t, %struct.lv_point_t, %struct.lv_point_t, %struct.lv_point_t, ptr, ptr, ptr, ptr, ptr, %struct.lv_area_t, %struct.lv_point_t, i32, i8, %struct.lv_point_t, i32, i16 }
%struct.lv_area_t = type { i32, i32, i32, i32 }
%struct.lv_point_t = type { i32, i32 }
%struct.anon.0 = type { i32, i32 }
%struct.lv_event_list_t = type { %struct._lv_array_t, i8 }
%struct._lv_array_t = type { ptr, i32, i32, i32, i8 }

@lv_global = external global %struct._lv_global_t, align 8

; Function Attrs: nounwind uwtable
define void @lv_indev_get_point(ptr noundef %0, ptr noundef %1) #0 {
  %3 = alloca ptr, align 8
  %4 = alloca ptr, align 8
  store ptr %0, ptr %3, align 8, !tbaa !8
  store ptr %1, ptr %4, align 8, !tbaa !35
  %5 = load ptr, ptr %3, align 8, !tbaa !8
  %6 = icmp eq ptr %5, null
  br i1 %6, label %7, label %12

7:                                                ; preds = %2
  %8 = load ptr, ptr %4, align 8, !tbaa !35
  %9 = getelementptr inbounds nuw %struct.lv_point_t, ptr %8, i32 0, i32 0
  store i32 0, ptr %9, align 4, !tbaa !124
  %10 = load ptr, ptr %4, align 8, !tbaa !35
  %11 = getelementptr inbounds nuw %struct.lv_point_t, ptr %10, i32 0, i32 1
  store i32 0, ptr %11, align 4, !tbaa !125
  br label %43

12:                                               ; preds = %2
  %13 = load ptr, ptr %3, align 8, !tbaa !8
  %14 = getelementptr inbounds nuw %struct._lv_indev_t, ptr %13, i32 0, i32 0
  %15 = load i32, ptr %14, align 8, !tbaa !26
  %16 = icmp ne i32 %15, 1
  br i1 %16, label %17, label %27

17:                                               ; preds = %12
  %18 = load ptr, ptr %3, align 8, !tbaa !8
  %19 = getelementptr inbounds nuw %struct._lv_indev_t, ptr %18, i32 0, i32 0
  %20 = load i32, ptr %19, align 8, !tbaa !26
  %21 = icmp ne i32 %20, 3
  br i1 %21, label %22, label %27

22:                                               ; preds = %17
  %23 = load ptr, ptr %4, align 8, !tbaa !35
  %24 = getelementptr inbounds nuw %struct.lv_point_t, ptr %23, i32 0, i32 0
  store i32 -1, ptr %24, align 4, !tbaa !124
  %25 = load ptr, ptr %4, align 8, !tbaa !35
  %26 = getelementptr inbounds nuw %struct.lv_point_t, ptr %25, i32 0, i32 1
  store i32 -1, ptr %26, align 4, !tbaa !125
  br label %42

27:                                               ; preds = %17, %12
  %28 = load ptr, ptr %3, align 8, !tbaa !8
  %29 = getelementptr inbounds nuw %struct._lv_indev_t, ptr %28, i32 0, i32 19
  %30 = getelementptr inbounds nuw %struct.anon, ptr %29, i32 0, i32 0
  %31 = getelementptr inbounds nuw %struct.lv_point_t, ptr %30, i32 0, i32 0
  %32 = load i32, ptr %31, align 8, !tbaa !107
  %33 = load ptr, ptr %4, align 8, !tbaa !35
  %34 = getelementptr inbounds nuw %struct.lv_point_t, ptr %33, i32 0, i32 0
  store i32 %32, ptr %34, align 4, !tbaa !124
  %35 = load ptr, ptr %3, align 8, !tbaa !8
  %36 = getelementptr inbounds nuw %struct._lv_indev_t, ptr %35, i32 0, i32 19
  %37 = getelementptr inbounds nuw %struct.anon, ptr %36, i32 0, i32 0
  %38 = getelementptr inbounds nuw %struct.lv_point_t, ptr %37, i32 0, i32 1
  %39 = load i32, ptr %38, align 4, !tbaa !108
  %40 = load ptr, ptr %4, align 8, !tbaa !35
  %41 = getelementptr inbounds nuw %struct.lv_point_t, ptr %40, i32 0, i32 1
  store i32 %39, ptr %41, align 4, !tbaa !125
  br label %42

42:                                               ; preds = %27, %22
  br label %43

43:                                               ; preds = %42, %7
  ret void
}

; Function Attrs: nounwind uwtable
define internal i32 @indev_proc_short_click(ptr noundef %0) #0 {
  %2 = alloca i32, align 4
  %3 = alloca ptr, align 8
  %4 = alloca i32, align 4
  %5 = alloca i32, align 4
  %6 = alloca i32, align 4
  %7 = alloca i32, align 4
  store ptr %0, ptr %3, align 8, !tbaa !8
  %8 = load ptr, ptr %3, align 8, !tbaa !8
  %9 = getelementptr inbounds nuw %struct._lv_indev_t, ptr %8, i32 0, i32 19
  %10 = getelementptr inbounds nuw %struct.anon, ptr %9, i32 0, i32 15
  %11 = load i8, ptr %10, align 4, !tbaa !134
  %12 = add i8 %11, 1
  store i8 %12, ptr %10, align 4, !tbaa !134
  %13 = load ptr, ptr %3, align 8, !tbaa !8
  %14 = getelementptr inbounds nuw %struct._lv_indev_t, ptr %13, i32 0, i32 19
  %15 = getelementptr inbounds nuw %struct.anon, ptr %14, i32 0, i32 17
  %16 = load i32, ptr %15, align 8, !tbaa !158
  %17 = call i32 @lv_tick_elaps(i32 noundef %16)
  %18 = load ptr, ptr %3, align 8, !tbaa !8
  %19 = getelementptr inbounds nuw %struct._lv_indev_t, ptr %18, i32 0, i32 16
  %20 = load i16, ptr %19, align 4, !tbaa !30
  %21 = zext i16 %20 to i32
  %22 = icmp ugt i32 %17, %21
  br i1 %22, label %23, label %27

23:                                               ; preds = %1
  %24 = load ptr, ptr %3, align 8, !tbaa !8
  %25 = getelementptr inbounds nuw %struct._lv_indev_t, ptr %24, i32 0, i32 19
  %26 = getelementptr inbounds nuw %struct.anon, ptr %25, i32 0, i32 15
  store i8 1, ptr %26, align 4, !tbaa !134
  br label %83

27:                                               ; preds = %1
  %28 = load ptr, ptr %3, align 8, !tbaa !8
  %29 = getelementptr inbounds nuw %struct._lv_indev_t, ptr %28, i32 0, i32 0
  %30 = load i32, ptr %29, align 8, !tbaa !26
  %31 = icmp eq i32 %30, 1
  br i1 %31, label %37, label %32

32:                                               ; preds = %27
  %33 = load ptr, ptr %3, align 8, !tbaa !8
  %34 = getelementptr inbounds nuw %struct._lv_indev_t, ptr %33, i32 0, i32 0
  %35 = load i32, ptr %34, align 8, !tbaa !26
  %36 = icmp eq i32 %35, 3
  br i1 %36, label %37, label %82

37:                                               ; preds = %32, %27
  call void @llvm.lifetime.start.p0(i64 4, ptr %4) #6
  %38 = load ptr, ptr %3, align 8, !tbaa !8
  %39 = getelementptr inbounds nuw %struct._lv_indev_t, ptr %38, i32 0, i32 19
  %40 = getelementptr inbounds nuw %struct.anon, ptr %39, i32 0, i32 16
  %41 = getelementptr inbounds nuw %struct.lv_point_t, ptr %40, i32 0, i32 0
  %42 = load i32, ptr %41, align 8, !tbaa !159
  %43 = load ptr, ptr %3, align 8, !tbaa !8
  %44 = getelementptr inbounds nuw %struct._lv_indev_t, ptr %43, i32 0, i32 19
  %45 = getelementptr inbounds nuw %struct.anon, ptr %44, i32 0, i32 0
  %46 = getelementptr inbounds nuw %struct.lv_point_t, ptr %45, i32 0, i32 0
  %47 = load i32, ptr %46, align 8, !tbaa !107
  %48 = sub nsw i32 %42, %47
  store i32 %48, ptr %4, align 4, !tbaa !41
  call void @llvm.lifetime.start.p0(i64 4, ptr %5) #6
  %49 = load ptr, ptr %3, align 8, !tbaa !8
  %50 = getelementptr inbounds nuw %struct._lv_indev_t, ptr %49, i32 0, i32 19
  %51 = getelementptr inbounds nuw %struct.anon, ptr %50, i32 0, i32 16
  %52 = getelementptr inbounds nuw %struct.lv_point_t, ptr %51, i32 0, i32 1
  %53 = load i32, ptr %52, align 4, !tbaa !160
  %54 = load ptr, ptr %3, align 8, !tbaa !8
  %55 = getelementptr inbounds nuw %struct._lv_indev_t, ptr %54, i32 0, i32 19
  %56 = getelementptr inbounds nuw %struct.anon, ptr %55, i32 0, i32 0
  %57 = getelementptr inbounds nuw %struct.lv_point_t, ptr %56, i32 0, i32 1
  %58 = load i32, ptr %57, align 4, !tbaa !108
  %59 = sub nsw i32 %53, %58
  store i32 %59, ptr %5, align 4, !tbaa !41
  %60 = load i32, ptr %4, align 4, !tbaa !41
  %61 = load i32, ptr %4, align 4, !tbaa !41
  %62 = mul nsw i32 %60, %61
  %63 = load i32, ptr %5, align 4, !tbaa !41
  %64 = load i32, ptr %5, align 4, !tbaa !41
  %65 = mul nsw i32 %63, %64
  %66 = add nsw i32 %62, %65
  %67 = load ptr, ptr %3, align 8, !tbaa !8
  %68 = getelementptr inbounds nuw %struct._lv_indev_t, ptr %67, i32 0, i32 12
  %69 = load i8, ptr %68, align 8, !tbaa !28
  %70 = zext i8 %69 to i32
  %71 = load ptr, ptr %3, align 8, !tbaa !8
  %72 = getelementptr inbounds nuw %struct._lv_indev_t, ptr %71, i32 0, i32 12
  %73 = load i8, ptr %72, align 8, !tbaa !28
  %74 = zext i8 %73 to i32
  %75 = mul nsw i32 %70, %74
  %76 = icmp sgt i32 %66, %75
  br i1 %76, label %77, label %81

77:                                               ; preds = %37
  %78 = load ptr, ptr %3, align 8, !tbaa !8
  %79 = getelementptr inbounds nuw %struct._lv_indev_t, ptr %78, i32 0, i32 19
  %80 = getelementptr inbounds nuw %struct.anon, ptr %79, i32 0, i32 15
  store i8 1, ptr %80, align 4, !tbaa !134
  br label %81

81:                                               ; preds = %77, %37
  call void @llvm.lifetime.end.p0(i64 4, ptr %5) #6
  call void @llvm.lifetime.end.p0(i64 4, ptr %4) #6
  br label %82

82:                                               ; preds = %81, %32
  br label %83

83:                                               ; preds = %82, %23
  %84 = call i32 @lv_tick_get()
  %85 = load ptr, ptr %3, align 8, !tbaa !8
  %86 = getelementptr inbounds nuw %struct._lv_indev_t, ptr %85, i32 0, i32 19
  %87 = getelementptr inbounds nuw %struct.anon, ptr %86, i32 0, i32 17
  store i32 %84, ptr %87, align 8, !tbaa !158
  %88 = load ptr, ptr %3, align 8, !tbaa !8
  %89 = load ptr, ptr %3, align 8, !tbaa !8
  %90 = getelementptr inbounds nuw %struct._lv_indev_t, ptr %89, i32 0, i32 19
  %91 = getelementptr inbounds nuw %struct.anon, ptr %90, i32 0, i32 16
  call void @lv_indev_get_point(ptr noundef %88, ptr noundef %91)
  call void @llvm.lifetime.start.p0(i64 4, ptr %6) #6
  %92 = load ptr, ptr getelementptr inbounds nuw (%struct._lv_global_t, ptr @lv_global, i32 0, i32 13), align 8, !tbaa !48
  %93 = call i32 @send_event(i32 noundef 4, ptr noundef %92)
  store i32 %93, ptr %6, align 4, !tbaa !41
  %94 = load i32, ptr %6, align 4, !tbaa !41
  %95 = icmp eq i32 %94, 0
  br i1 %95, label %96, label %98

96:                                               ; preds = %83
  %97 = load i32, ptr %6, align 4, !tbaa !41
  store i32 %97, ptr %2, align 4
  store i32 1, ptr %7, align 4
  br label %117

98:                                               ; preds = %83
  %99 = load ptr, ptr %3, align 8, !tbaa !8
  %100 = getelementptr inbounds nuw %struct._lv_indev_t, ptr %99, i32 0, i32 19
  %101 = getelementptr inbounds nuw %struct.anon, ptr %100, i32 0, i32 15
  %102 = load i8, ptr %101, align 4, !tbaa !134
  %103 = zext i8 %102 to i32
  %104 = sub nsw i32 %103, 1
  %105 = srem i32 %104, 3
  switch i32 %105, label %115 [
    i32 0, label %106
    i32 1, label %109
    i32 2, label %112
  ]

106:                                              ; preds = %98
  %107 = load ptr, ptr getelementptr inbounds nuw (%struct._lv_global_t, ptr @lv_global, i32 0, i32 13), align 8, !tbaa !48
  %108 = call i32 @send_event(i32 noundef 5, ptr noundef %107)
  store i32 %108, ptr %2, align 4
  store i32 1, ptr %7, align 4
  br label %117

109:                                              ; preds = %98
  %110 = load ptr, ptr getelementptr inbounds nuw (%struct._lv_global_t, ptr @lv_global, i32 0, i32 13), align 8, !tbaa !48
  %111 = call i32 @send_event(i32 noundef 6, ptr noundef %110)
  store i32 %111, ptr %2, align 4
  store i32 1, ptr %7, align 4
  br label %117

112:                                              ; preds = %98
  %113 = load ptr, ptr getelementptr inbounds nuw (%struct._lv_global_t, ptr @lv_global, i32 0, i32 13), align 8, !tbaa !48
  %114 = call i32 @send_event(i32 noundef 7, ptr noundef %113)
  store i32 %114, ptr %2, align 4
  store i32 1, ptr %7, align 4
  br label %117

115:                                              ; preds = %98
  %116 = load i32, ptr %6, align 4, !tbaa !41
  store i32 %116, ptr %2, align 4
  store i32 1, ptr %7, align 4
  br label %117

117:                                              ; preds = %115, %112, %109, %106, %96
  call void @llvm.lifetime.end.p0(i64 4, ptr %6) #6
  %118 = load i32, ptr %2, align 4
  ret i32 %118
}