; Function Attrs: nounwind uwtable
define internal fastcc range(i32 0, 2) i32 @indev_proc_short_click(ptr noundef nonnull captures(none) %0) unnamed_addr #0 {
  %2 = getelementptr inbounds nuw i8, ptr %0, i64 88
  %3 = getelementptr inbounds nuw i8, ptr %0, i64 212
  %4 = load i8, ptr %3, align 4, !tbaa !124
  %5 = add i8 %4, 1
  store i8 %5, ptr %3, align 4, !tbaa !124
  %6 = getelementptr inbounds nuw i8, ptr %0, i64 224
  %7 = load i32, ptr %6, align 8, !tbaa !143
  %8 = tail call i32 @lv_tick_elaps(i32 noundef %7) #11
  %9 = getelementptr inbounds nuw i8, ptr %0, i64 76
  %10 = load i16, ptr %9, align 4, !tbaa !27
  %11 = zext i16 %10 to i32
  %12 = icmp ugt i32 %8, %11
  br i1 %12, label %.sink.split, label %13

13:                                               ; preds = %1
  %14 = load i32, ptr %0, align 8, !tbaa !23
  switch i32 %14, label %33 [
    i32 1, label %15
    i32 3, label %15
  ]

15:                                               ; preds = %13, %13
  %16 = getelementptr inbounds nuw i8, ptr %0, i64 216
  %17 = load i32, ptr %16, align 8, !tbaa !144
  %18 = load i32, ptr %2, align 8, !tbaa !93
  %19 = sub nsw i32 %17, %18
  %20 = getelementptr inbounds nuw i8, ptr %0, i64 220
  %21 = load i32, ptr %20, align 4, !tbaa !145
  %22 = getelementptr inbounds nuw i8, ptr %0, i64 92
  %23 = load i32, ptr %22, align 4, !tbaa !94
  %24 = sub nsw i32 %21, %23
  %25 = mul nsw i32 %19, %19
  %26 = mul nsw i32 %24, %24
  %27 = add nuw nsw i32 %26, %25
  %28 = getelementptr inbounds nuw i8, ptr %0, i64 72
  %29 = load i8, ptr %28, align 8, !tbaa !25
  %30 = zext i8 %29 to i32
  %31 = mul nuw nsw i32 %30, %30
  %32 = icmp samesign ugt i32 %27, %31
  br i1 %32, label %.sink.split, label %33

.sink.split:                                      ; preds = %15, %1
  store i8 1, ptr %3, align 4, !tbaa !124
  br label %33

33:                                               ; preds = %.sink.split, %15, %13
  %34 = tail call i32 @lv_tick_get() #11
  store i32 %34, ptr %6, align 8, !tbaa !143
  %35 = getelementptr inbounds nuw i8, ptr %0, i64 216
  %36 = load i32, ptr %0, align 8, !tbaa !23
  switch i32 %36, label %37 [
    i32 1, label %38
    i32 3, label %38
  ]

37:                                               ; preds = %33
  store i32 -1, ptr %35, align 4, !tbaa !116
  br label %lv_indev_get_point.exit

38:                                               ; preds = %33, %33
  %39 = load i32, ptr %2, align 8, !tbaa !93
  store i32 %39, ptr %35, align 4, !tbaa !116
  %40 = getelementptr inbounds nuw i8, ptr %0, i64 92
  %41 = load i32, ptr %40, align 4, !tbaa !94
  br label %lv_indev_get_point.exit

lv_indev_get_point.exit:                          ; preds = %37, %38
  %.sink.i = phi i32 [ -1, %37 ], [ %41, %38 ]
  %42 = getelementptr inbounds nuw i8, ptr %0, i64 220
  store i32 %.sink.i, ptr %42, align 4, !tbaa !117
  %43 = load ptr, ptr getelementptr inbounds nuw (i8, ptr @lv_global, i64 152), align 8, !tbaa !40
  %44 = tail call fastcc i32 @send_event(i32 noundef 4, ptr noundef %43)
  %45 = icmp eq i32 %44, 0
  br i1 %45, label %send_event.exit, label %46

46:                                               ; preds = %lv_indev_get_point.exit
  %47 = load i8, ptr %3, align 4, !tbaa !124
  %48 = zext i8 %47 to i16
  %.lhs.trunc = add nsw i16 %48, -1
  %49 = srem i16 %.lhs.trunc, 3
  switch i16 %49, label %send_event.exit [
    i16 0, label %50
    i16 1, label %57
    i16 2, label %64
  ]

50:                                               ; preds = %46
  %51 = load ptr, ptr getelementptr inbounds nuw (i8, ptr @lv_global, i64 152), align 8, !tbaa !40
  %52 = load ptr, ptr getelementptr inbounds nuw (i8, ptr @lv_global, i64 160), align 8, !tbaa !66
  %53 = tail call i32 @lv_obj_send_event(ptr noundef %52, i32 noundef 5, ptr noundef %51) #11
  %54 = getelementptr inbounds nuw i8, ptr %51, i64 28
  %55 = load i8, ptr %54, align 4
  %56 = and i8 %55, 2
  %.not.i27.i = icmp eq i8 %56, 0
  br i1 %.not.i27.i, label %send_event.exit, label %indev_reset_check.exit31.i

indev_reset_check.exit31.i:                       ; preds = %50
  store ptr null, ptr getelementptr inbounds nuw (i8, ptr @lv_global, i64 160), align 8, !tbaa !66
  %.pre.i28.i = load i8, ptr %54, align 4
  %.pre.i28.fr.i = freeze i8 %.pre.i28.i
  %.pre2.i29.i = and i8 %.pre.i28.fr.i, 2
  %.not36.i = icmp eq i8 %.pre2.i29.i, 0
  br label %send_event.exit

57:                                               ; preds = %46
  %58 = load ptr, ptr getelementptr inbounds nuw (i8, ptr @lv_global, i64 152), align 8, !tbaa !40
  %59 = load ptr, ptr getelementptr inbounds nuw (i8, ptr @lv_global, i64 160), align 8, !tbaa !66
  %60 = tail call i32 @lv_obj_send_event(ptr noundef %59, i32 noundef 6, ptr noundef %58) #11
  %61 = getelementptr inbounds nuw i8, ptr %58, i64 28
  %62 = load i8, ptr %61, align 4
  %63 = and i8 %62, 2
  %.not.i27.i26 = icmp eq i8 %63, 0
  br i1 %.not.i27.i26, label %send_event.exit, label %indev_reset_check.exit31.i27

indev_reset_check.exit31.i27:                     ; preds = %57
  store ptr null, ptr getelementptr inbounds nuw (i8, ptr @lv_global, i64 160), align 8, !tbaa !66
  %.pre.i28.i28 = load i8, ptr %61, align 4
  %.pre.i28.fr.i29 = freeze i8 %.pre.i28.i28
  %.pre2.i29.i30 = and i8 %.pre.i28.fr.i29, 2
  %.not36.i31 = icmp eq i8 %.pre2.i29.i30, 0
  br label %send_event.exit

64:                                               ; preds = %46
  %65 = load ptr, ptr getelementptr inbounds nuw (i8, ptr @lv_global, i64 152), align 8, !tbaa !40
  %66 = load ptr, ptr getelementptr inbounds nuw (i8, ptr @lv_global, i64 160), align 8, !tbaa !66
  %67 = tail call i32 @lv_obj_send_event(ptr noundef %66, i32 noundef 7, ptr noundef %65) #11
  %68 = getelementptr inbounds nuw i8, ptr %65, i64 28
  %69 = load i8, ptr %68, align 4
  %70 = and i8 %69, 2
  %.not.i27.i35 = icmp eq i8 %70, 0
  br i1 %.not.i27.i35, label %send_event.exit, label %indev_reset_check.exit31.i36

indev_reset_check.exit31.i36:                     ; preds = %64
  store ptr null, ptr getelementptr inbounds nuw (i8, ptr @lv_global, i64 160), align 8, !tbaa !66
  %.pre.i28.i37 = load i8, ptr %68, align 4
  %.pre.i28.fr.i38 = freeze i8 %.pre.i28.i37
  %.pre2.i29.i39 = and i8 %.pre.i28.fr.i38, 2
  %.not36.i40 = icmp eq i8 %.pre2.i29.i39, 0
  br label %send_event.exit

send_event.exit:                                  ; preds = %indev_reset_check.exit31.i36, %64, %indev_reset_check.exit31.i27, %57, %indev_reset_check.exit31.i, %50, %46, %lv_indev_get_point.exit
  %.0.shrunk = phi i1 [ false, %lv_indev_get_point.exit ], [ true, %46 ], [ true, %50 ], [ %.not36.i, %indev_reset_check.exit31.i ], [ true, %57 ], [ %.not36.i31, %indev_reset_check.exit31.i27 ], [ true, %64 ], [ %.not36.i40, %indev_reset_check.exit31.i36 ]
  %.0 = zext i1 %.0.shrunk to i32
  ret i32 %.0
}